; Function Attrs: mustprogress nounwind uwtable
define dso_local i64 @_ZNK5clang12HeaderSearch19findModuleForHeaderENS_12FileEntryRefEbb(ptr noundef nonnull align 8 dereferenceable(2192) %0, ptr %1, i1 noundef zeroext %2, i1 noundef zeroext %3) local_unnamed_addr #0 align 2 {
  %5 = getelementptr inbounds nuw i8, ptr %0, i64 2184
  %6 = load ptr, ptr %5, align 8
  %.not = icmp eq ptr %6, null
  br i1 %.not, label %9, label %7

7:                                                ; preds = %4
  %8 = tail call noundef ptr @_ZNK5clang12HeaderSearch19getExistingFileInfoENS_12FileEntryRefE(ptr noundef nonnull align 8 dereferenceable(2192) %0, ptr %1)
  br label %9

9:                                                ; preds = %7, %4
  %10 = getelementptr inbounds nuw i8, ptr %0, i64 640
  %11 = tail call i64 @_ZN5clang9ModuleMap19findModuleForHeaderENS_12FileEntryRefEbb(ptr noundef nonnull align 8 dereferenceable(1344) %10, ptr %1, i1 noundef zeroext %2, i1 noundef zeroext %3) #22
  ret i64 %11
}